target datalayout = "e-m:e-p270:32:32-p271:32:32-p272:64:64-i64:64-i128:128-f80:128-n8:16:32:64-S128"
target triple = "x86_64-pc-linux-gnu"

%"class.tbb::detail::r1::thread_data" = type { %"struct.tbb::detail::d1::intrusive_list_node", i16, i8, i8, ptr, ptr, ptr, ptr, %"class.tbb::detail::r1::mail_inbox", %"class.tbb::detail::r1::FastRandom", ptr, ptr, ptr, i32, ptr, %"class.tbb::detail::d1::task_group_context" }
%"struct.tbb::detail::d1::intrusive_list_node" = type { ptr, ptr }
%"class.tbb::detail::r1::mail_inbox" = type { ptr }
%"class.tbb::detail::r1::FastRandom" = type { i32, i32 }
%"class.tbb::detail::d1::task_group_context" = type { i64, %"struct.std::atomic.4", i8, %"struct.tbb::detail::d1::task_group_context::context_traits", %"struct.std::atomic.6", %"struct.std::atomic.8", %union.anon, ptr, %"struct.tbb::detail::d1::intrusive_list_node", %"struct.std::atomic.9", ptr, i64, [56 x i8] }
%"struct.std::atomic.4" = type { %"struct.std::__atomic_base.5" }
%"struct.std::__atomic_base.5" = type { i32 }
%"struct.tbb::detail::d1::task_group_context::context_traits" = type { i8 }
%"struct.std::atomic.6" = type { %"struct.std::__atomic_base.7" }
%"struct.std::__atomic_base.7" = type { i8 }
%"struct.std::atomic.8" = type { i8 }
%union.anon = type { ptr }
%"struct.std::atomic.9" = type { %"struct.std::__atomic_base.10" }
%"struct.std::__atomic_base.10" = type { ptr }
%"struct.tbb::detail::r1::suspend_point_type" = type { ptr, %"class.tbb::detail::r1::FastRandom", %"struct.std::atomic", i8, [6 x i8], %"class.tbb::detail::r1::co_context", ptr, %"struct.std::atomic.24", [60 x i8], %"struct.tbb::detail::r1::suspend_point_type::resume_task" }
%"struct.std::atomic" = type { %"struct.std::__atomic_base" }
%"struct.std::__atomic_base" = type { i8 }
%"class.tbb::detail::r1::co_context" = type <{ %"struct.tbb::detail::r1::coroutine_type", i32, [4 x i8] }>
%"struct.tbb::detail::r1::coroutine_type" = type { %struct.ucontext_t, ptr, i64 }
%struct.ucontext_t = type { i64, ptr, %struct.stack_t, %struct.mcontext_t, %struct.__sigset_t, %struct._libc_fpstate, [4 x i64] }
%struct.stack_t = type { ptr, i32, i64 }
%struct.mcontext_t = type { [23 x i64], ptr, [8 x i64] }
%struct.__sigset_t = type { [16 x i64] }
%struct._libc_fpstate = type { i16, i16, i16, i16, i64, i64, i32, i32, [8 x %struct._libc_fpxreg], [16 x %struct._libc_xmmreg], [24 x i32] }
%struct._libc_fpxreg = type { [4 x i16], i16, [3 x i16] }
%struct._libc_xmmreg = type { [4 x i32] }
%"struct.std::atomic.24" = type { i32 }
%"struct.tbb::detail::r1::suspend_point_type::resume_task" = type { %"class.tbb::detail::d1::task", ptr, [56 x i8] }
%"class.tbb::detail::d1::task" = type { ptr, %"class.tbb::detail::d1::task_traits", [6 x i64] }
%"class.tbb::detail::d1::task_traits" = type { i64 }
%"struct.std::atomic.13" = type { %"struct.std::__atomic_base.14" }
%"struct.std::__atomic_base.14" = type { i64 }
%"class.tbb::detail::r1::task_dispatcher" = type { ptr, %"struct.tbb::detail::r1::execution_data_ext", %"struct.tbb::detail::r1::task_dispatcher::properties", i64, ptr, %"class.std::unordered_map" }
%"struct.tbb::detail::r1::execution_data_ext" = type { %"struct.tbb::detail::d1::execution_data.base", ptr, i64, ptr }
%"struct.tbb::detail::d1::execution_data.base" = type <{ ptr, i16, i16 }>
%"struct.tbb::detail::r1::task_dispatcher::properties" = type { i8, i8, i8 }
%"class.std::unordered_map" = type { %"class.std::_Hashtable" }
%"class.std::_Hashtable" = type { ptr, i64, %"struct.std::__detail::_Hash_node_base", i64, %"struct.std::__detail::_Prime_rehash_policy", ptr }
%"struct.std::__detail::_Hash_node_base" = type { ptr }
%"struct.std::__detail::_Prime_rehash_policy" = type { float, i64 }
%"class.tbb::detail::r1::arena_slot" = type { %"struct.tbb::detail::r1::arena_slot_shared_state.base", [104 x i8], %"struct.tbb::detail::r1::arena_slot_private_state.base", ptr, [80 x i8] }
%"struct.tbb::detail::r1::arena_slot_shared_state.base" = type { %"struct.std::atomic", %"struct.std::atomic.20", %"struct.std::atomic.13" }
%"struct.std::atomic.20" = type { %"struct.std::__atomic_base.21" }
%"struct.std::__atomic_base.21" = type { ptr }
%"struct.tbb::detail::r1::arena_slot_private_state.base" = type { i32, i32, i32, %"struct.std::atomic.13", i64, ptr }

; Function Attrs: mustprogress nounwind sspstrong uwtable
define linkonce_odr noundef i32 @_ZStanSt12memory_orderSt23__memory_order_modifier(i32 noundef %0, i32 noundef %1) #1 comdat {
  %3 = alloca i32, align 4
  %4 = alloca i32, align 4
  store i32 %0, ptr %3, align 4, !tbaa !157
  store i32 %1, ptr %4, align 4, !tbaa !196
  %5 = load i32, ptr %3, align 4, !tbaa !157
  %6 = load i32, ptr %4, align 4, !tbaa !196
  %7 = and i32 %5, %6
  ret i32 %7
}

; Function Attrs: mustprogress nounwind sspstrong uwtable
define linkonce_odr noundef i32 @_ZNSt6atomicIN3tbb6detail2r118suspend_point_type11stack_stateEE8exchangeES4_St12memory_order(ptr noundef nonnull align 4 dereferenceable(4) %0, i32 noundef %1, i32 noundef %2) #1 comdat align 2 {
  %4 = alloca ptr, align 8
  %5 = alloca i32, align 4
  %6 = alloca i32, align 4
  %7 = alloca [4 x i8], align 4
  %8 = alloca ptr, align 8
  store ptr %0, ptr %4, align 8, !tbaa !205
  store i32 %1, ptr %5, align 4, !tbaa !207
  store i32 %2, ptr %6, align 4, !tbaa !157
  %9 = load ptr, ptr %4, align 8
  call void @llvm.lifetime.start.p0(i64 4, ptr %7) #11
  call void @llvm.lifetime.start.p0(i64 8, ptr %8) #11
  %10 = getelementptr inbounds [4 x i8], ptr %7, i64 0, i64 0
  store ptr %10, ptr %8, align 8, !tbaa !10
  %11 = getelementptr inbounds nuw %"struct.std::atomic.24", ptr %9, i32 0, i32 0
  %12 = load i32, ptr %6, align 4, !tbaa !157
  %13 = load ptr, ptr %8, align 8, !tbaa !10
  switch i32 %12, label %14 [
    i32 1, label %17
    i32 2, label %17
    i32 3, label %20
    i32 4, label %23
    i32 5, label %26
  ]

14:                                               ; preds = %3
  %15 = load i32, ptr %5, align 4
  %16 = atomicrmw xchg ptr %11, i32 %15 monotonic, align 4
  store i32 %16, ptr %13, align 4
  br label %29

17:                                               ; preds = %3, %3
  %18 = load i32, ptr %5, align 4
  %19 = atomicrmw xchg ptr %11, i32 %18 acquire, align 4
  store i32 %19, ptr %13, align 4
  br label %29

20:                                               ; preds = %3
  %21 = load i32, ptr %5, align 4
  %22 = atomicrmw xchg ptr %11, i32 %21 release, align 4
  store i32 %22, ptr %13, align 4
  br label %29

23:                                               ; preds = %3
  %24 = load i32, ptr %5, align 4
  %25 = atomicrmw xchg ptr %11, i32 %24 acq_rel, align 4
  store i32 %25, ptr %13, align 4
  br label %29

26:                                               ; preds = %3
  %27 = load i32, ptr %5, align 4
  %28 = atomicrmw xchg ptr %11, i32 %27 seq_cst, align 4
  store i32 %28, ptr %13, align 4
  br label %29

29:                                               ; preds = %26, %23, %20, %17, %14
  %30 = load ptr, ptr %8, align 8, !tbaa !10
  %31 = load i32, ptr %30, align 4, !tbaa !207
  call void @llvm.lifetime.end.p0(i64 8, ptr %8) #11
  call void @llvm.lifetime.end.p0(i64 4, ptr %7) #11
  ret i32 %31
}

; Function Attrs: mustprogress nounwind sspstrong uwtable
define linkonce_odr void @_ZNSt6atomicIN3tbb6detail2r118suspend_point_type11stack_stateEE5storeES4_St12memory_order(ptr noundef nonnull align 4 dereferenceable(4) %0, i32 noundef %1, i32 noundef %2) #1 comdat align 2 {
  %4 = alloca ptr, align 8
  %5 = alloca i32, align 4
  %6 = alloca i32, align 4
  store ptr %0, ptr %4, align 8, !tbaa !205
  store i32 %1, ptr %5, align 4, !tbaa !207
  store i32 %2, ptr %6, align 4, !tbaa !157
  %7 = load ptr, ptr %4, align 8
  %8 = getelementptr inbounds nuw %"struct.std::atomic.24", ptr %7, i32 0, i32 0
  %9 = load i32, ptr %6, align 4, !tbaa !157
  switch i32 %9, label %10 [
    i32 3, label %12
    i32 5, label %14
  ]

10:                                               ; preds = %3
  %11 = load i32, ptr %5, align 4
  store atomic i32 %11, ptr %8 monotonic, align 4
  br label %16

12:                                               ; preds = %3
  %13 = load i32, ptr %5, align 4
  store atomic i32 %13, ptr %8 release, align 4
  br label %16

14:                                               ; preds = %3
  %15 = load i32, ptr %5, align 4
  store atomic i32 %15, ptr %8 seq_cst, align 4
  br label %16

16:                                               ; preds = %14, %12, %10
  ret void
}

; Function Attrs: inlinehint mustprogress nounwind sspstrong uwtable
define linkonce_odr void @_ZN3tbb6detail2r114swap_coroutineERNS1_14coroutine_typeES3_(ptr noundef nonnull align 8 dereferenceable(984) %0, ptr noundef nonnull align 8 dereferenceable(984) %1) #4 comdat {
  %3 = alloca ptr, align 8
  %4 = alloca ptr, align 8
  %5 = alloca i32, align 4
  store ptr %0, ptr %3, align 8, !tbaa !265
  store ptr %1, ptr %4, align 8, !tbaa !265
  call void @llvm.lifetime.start.p0(i64 4, ptr %5) #11
  %6 = load ptr, ptr %3, align 8, !tbaa !265
  %7 = getelementptr inbounds nuw %"struct.tbb::detail::r1::coroutine_type", ptr %6, i32 0, i32 0
  %8 = load ptr, ptr %4, align 8, !tbaa !265
  %9 = getelementptr inbounds nuw %"struct.tbb::detail::r1::coroutine_type", ptr %8, i32 0, i32 0
  %10 = call i32 @swapcontext(ptr noundef %7, ptr noundef %9) #11
  store i32 %10, ptr %5, align 4, !tbaa !101
  call void @llvm.lifetime.end.p0(i64 4, ptr %5) #11
  ret void
}

; Function Attrs: alwaysinline mustprogress nounwind sspstrong uwtable
define linkonce_odr void @_ZNSt13__atomic_baseIbE5storeEbSt12memory_order(ptr noundef nonnull align 1 dereferenceable(1) %0, i1 noundef zeroext %1, i32 noundef %2) #9 comdat align 2 {
  %4 = alloca ptr, align 8
  %5 = alloca i8, align 1
  %6 = alloca i32, align 4
  %7 = alloca i32, align 4
  %8 = alloca i8, align 1
  store ptr %0, ptr %4, align 8, !tbaa !218
  %9 = zext i1 %1 to i8
  store i8 %9, ptr %5, align 1, !tbaa !98
  store i32 %2, ptr %6, align 4, !tbaa !157
  %10 = load ptr, ptr %4, align 8
  call void @llvm.lifetime.start.p0(i64 4, ptr %7) #11
  %11 = load i32, ptr %6, align 4, !tbaa !157
  %12 = call noundef i32 @_ZStanSt12memory_orderSt23__memory_order_modifier(i32 noundef %11, i32 noundef 65535)
  store i32 %12, ptr %7, align 4, !tbaa !157
  br label %13

13:                                               ; preds = %3
  br label %14

14:                                               ; preds = %13
  br label %15

15:                                               ; preds = %14
  br label %16

16:                                               ; preds = %15
  br label %17

17:                                               ; preds = %16
  br label %18

18:                                               ; preds = %17
  br label %19

19:                                               ; preds = %18
  br label %20

20:                                               ; preds = %19
  br label %21

21:                                               ; preds = %20
  %22 = getelementptr inbounds nuw %"struct.std::__atomic_base", ptr %10, i32 0, i32 0
  %23 = load i32, ptr %6, align 4, !tbaa !157
  %24 = load i8, ptr %5, align 1, !tbaa !98, !range !82, !noundef !83
  %25 = trunc i8 %24 to i1
  %26 = zext i1 %25 to i8
  store i8 %26, ptr %8, align 1, !tbaa !98
  switch i32 %23, label %27 [
    i32 3, label %29
    i32 5, label %31
  ]

27:                                               ; preds = %21
  %28 = load i8, ptr %8, align 1
  store atomic i8 %28, ptr %22 monotonic, align 1
  br label %33

29:                                               ; preds = %21
  %30 = load i8, ptr %8, align 1
  store atomic i8 %30, ptr %22 release, align 1
  br label %33

31:                                               ; preds = %21
  %32 = load i8, ptr %8, align 1
  store atomic i8 %32, ptr %22 seq_cst, align 1
  br label %33

33:                                               ; preds = %31, %29, %27
  call void @llvm.lifetime.end.p0(i64 4, ptr %7) #11
  ret void
}

; Function Attrs: mustprogress sspstrong uwtable
define linkonce_odr void @_ZN3tbb6detail2r118suspend_point_type15finilize_resumeEv(ptr noundef nonnull align 64 dereferenceable(1216) %0) #3 comdat align 2 {
  %2 = alloca ptr, align 8
  store ptr %0, ptr %2, align 8, !tbaa !43
  %3 = load ptr, ptr %2, align 8
  %4 = getelementptr inbounds nuw %"struct.tbb::detail::r1::suspend_point_type", ptr %3, i32 0, i32 7
  call void @_ZNSt6atomicIN3tbb6detail2r118suspend_point_type11stack_stateEE5storeES4_St12memory_order(ptr noundef nonnull align 4 dereferenceable(4) %4, i32 noundef 0, i32 noundef 0) #11
  %5 = getelementptr inbounds nuw %"struct.tbb::detail::r1::suspend_point_type", ptr %3, i32 0, i32 6
  %6 = load ptr, ptr %5, align 8, !tbaa !159
  %7 = icmp ne ptr %6, null
  br i1 %7, label %8, label %17

8:                                                ; preds = %1
  %9 = getelementptr inbounds nuw %"struct.tbb::detail::r1::suspend_point_type", ptr %3, i32 0, i32 6
  %10 = load ptr, ptr %9, align 8, !tbaa !159
  %11 = getelementptr inbounds nuw %"struct.tbb::detail::r1::suspend_point_type", ptr %10, i32 0, i32 7
  %12 = call noundef i32 @_ZNSt6atomicIN3tbb6detail2r118suspend_point_type11stack_stateEE8exchangeES4_St12memory_order(ptr noundef nonnull align 4 dereferenceable(4) %11, i32 noundef 1, i32 noundef 5) #11
  %13 = icmp eq i32 %12, 2
  br i1 %13, label %14, label %17

14:                                               ; preds = %8
  %15 = getelementptr inbounds nuw %"struct.tbb::detail::r1::suspend_point_type", ptr %3, i32 0, i32 6
  %16 = load ptr, ptr %15, align 8, !tbaa !159
  call void @_ZN3tbb6detail2r16resumeEPNS1_18suspend_point_typeE(ptr noundef %16)
  br label %17

17:                                               ; preds = %14, %8, %1
  %18 = getelementptr inbounds nuw %"struct.tbb::detail::r1::suspend_point_type", ptr %3, i32 0, i32 6
  store ptr null, ptr %18, align 8, !tbaa !159
  ret void
}

; Function Attrs: mustprogress sspstrong uwtable
define linkonce_odr void @_ZN3tbb6detail2r110co_context6resumeERS2_(ptr noundef nonnull align 8 dereferenceable(988) %0, ptr noundef nonnull align 8 dereferenceable(988) %1) #3 comdat align 2 {
  %3 = alloca ptr, align 8
  %4 = alloca ptr, align 8
  store ptr %0, ptr %3, align 8, !tbaa !262
  store ptr %1, ptr %4, align 8, !tbaa !262
  %5 = load ptr, ptr %3, align 8
  %6 = getelementptr inbounds nuw %"class.tbb::detail::r1::co_context", ptr %5, i32 0, i32 1
  store i32 1, ptr %6, align 8, !tbaa !264
  %7 = load ptr, ptr %4, align 8, !tbaa !262
  %8 = getelementptr inbounds nuw %"class.tbb::detail::r1::co_context", ptr %7, i32 0, i32 1
  store i32 2, ptr %8, align 8, !tbaa !264
  %9 = getelementptr inbounds nuw %"class.tbb::detail::r1::co_context", ptr %5, i32 0, i32 0
  %10 = load ptr, ptr %4, align 8, !tbaa !262
  %11 = getelementptr inbounds nuw %"class.tbb::detail::r1::co_context", ptr %10, i32 0, i32 0
  call void @_ZN3tbb6detail2r114swap_coroutineERNS1_14coroutine_typeES3_(ptr noundef nonnull align 8 dereferenceable(984) %9, ptr noundef nonnull align 8 dereferenceable(984) %11)
  ret void
}

; Function Attrs: mustprogress nounwind sspstrong uwtable
define linkonce_odr void @_ZNSt6atomicIbE5storeEbSt12memory_order(ptr noundef nonnull align 1 dereferenceable(1) %0, i1 noundef zeroext %1, i32 noundef %2) #1 comdat align 2 {
  %4 = alloca ptr, align 8
  %5 = alloca i8, align 1
  %6 = alloca i32, align 4
  store ptr %0, ptr %4, align 8, !tbaa !155
  %7 = zext i1 %1 to i8
  store i8 %7, ptr %5, align 1, !tbaa !98
  store i32 %2, ptr %6, align 4, !tbaa !157
  %8 = load ptr, ptr %4, align 8
  %9 = getelementptr inbounds nuw %"struct.std::atomic", ptr %8, i32 0, i32 0
  %10 = load i8, ptr %5, align 1, !tbaa !98, !range !82, !noundef !83
  %11 = trunc i8 %10 to i1
  %12 = load i32, ptr %6, align 4, !tbaa !157
  call void @_ZNSt13__atomic_baseIbE5storeEbSt12memory_order(ptr noundef nonnull align 1 dereferenceable(1) %9, i1 noundef zeroext %11, i32 noundef %12) #11
  ret void
}

; Function Attrs: mustprogress sspstrong uwtable
define linkonce_odr void @_ZN3tbb6detail2r118suspend_point_type6resumeEPS2_(ptr noundef nonnull align 64 dereferenceable(1216) %0, ptr noundef %1) #3 comdat align 2 {
  %3 = alloca ptr, align 8
  %4 = alloca ptr, align 8
  store ptr %0, ptr %3, align 8, !tbaa !43
  store ptr %1, ptr %4, align 8, !tbaa !43
  %5 = load ptr, ptr %3, align 8
  %6 = load ptr, ptr %4, align 8, !tbaa !43
  %7 = getelementptr inbounds nuw %"struct.tbb::detail::r1::suspend_point_type", ptr %6, i32 0, i32 6
  store ptr %5, ptr %7, align 8, !tbaa !159
  %8 = getelementptr inbounds nuw %"struct.tbb::detail::r1::suspend_point_type", ptr %5, i32 0, i32 5
  %9 = load ptr, ptr %4, align 8, !tbaa !43
  %10 = getelementptr inbounds nuw %"struct.tbb::detail::r1::suspend_point_type", ptr %9, i32 0, i32 5
  call void @_ZN3tbb6detail2r110co_context6resumeERS2_(ptr noundef nonnull align 8 dereferenceable(988) %8, ptr noundef nonnull align 8 dereferenceable(988) %10)
  call void @_ZN3tbb6detail2r118suspend_point_type15finilize_resumeEv(ptr noundef nonnull align 64 dereferenceable(1216) %5)
  ret void
}

; Function Attrs: inlinehint mustprogress nounwind sspstrong uwtable
define linkonce_odr void @_ZN3tbb6detail2r111thread_data22attach_task_dispatcherERNS1_15task_dispatcherE(ptr noundef nonnull align 8 dereferenceable(240) %0, ptr noundef nonnull align 128 dereferenceable(128) %1) #4 comdat align 2 {
  %3 = alloca ptr, align 8
  %4 = alloca ptr, align 8
  store ptr %0, ptr %3, align 8, !tbaa !3
  store ptr %1, ptr %4, align 8, !tbaa !65
  %5 = load ptr, ptr %3, align 8
  %6 = load ptr, ptr %4, align 8, !tbaa !65
  %7 = getelementptr inbounds nuw %"class.tbb::detail::r1::task_dispatcher", ptr %6, i32 0, i32 0
  store ptr %5, ptr %7, align 128, !tbaa !84
  %8 = load ptr, ptr %4, align 8, !tbaa !65
  %9 = getelementptr inbounds nuw %"class.tbb::detail::r1::thread_data", ptr %5, i32 0, i32 4
  store ptr %8, ptr %9, align 8, !tbaa !97
  ret void
}

; Function Attrs: inlinehint mustprogress nounwind sspstrong uwtable
define linkonce_odr void @_ZN3tbb6detail2r111thread_data22detach_task_dispatcherEv(ptr noundef nonnull align 8 dereferenceable(240) %0) #4 comdat align 2 {
  %2 = alloca ptr, align 8
  store ptr %0, ptr %2, align 8, !tbaa !3
  %3 = load ptr, ptr %2, align 8
  %4 = getelementptr inbounds nuw %"class.tbb::detail::r1::thread_data", ptr %3, i32 0, i32 4
  %5 = load ptr, ptr %4, align 8, !tbaa !97
  %6 = getelementptr inbounds nuw %"class.tbb::detail::r1::task_dispatcher", ptr %5, i32 0, i32 0
  store ptr null, ptr %6, align 128, !tbaa !84
  %7 = getelementptr inbounds nuw %"class.tbb::detail::r1::thread_data", ptr %3, i32 0, i32 4
  store ptr null, ptr %7, align 8, !tbaa !97
  ret void
}

; Function Attrs: mustprogress sspstrong uwtable
define noundef zeroext i1 @_ZN3tbb6detail2r115task_dispatcher6resumeERS2_(ptr noundef nonnull align 128 dereferenceable(128) %0, ptr noundef nonnull align 128 dereferenceable(128) %1) #3 align 2 {
  %3 = alloca i1, align 1
  %4 = alloca ptr, align 8
  %5 = alloca ptr, align 8
  %6 = alloca ptr, align 8
  %7 = alloca ptr, align 8
  %8 = alloca ptr, align 8
  store ptr %0, ptr %4, align 8, !tbaa !65
  store ptr %1, ptr %5, align 8, !tbaa !65
  %9 = load ptr, ptr %4, align 8
  call void @llvm.lifetime.start.p0(i64 8, ptr %6) #11
  %10 = getelementptr inbounds nuw %"class.tbb::detail::r1::task_dispatcher", ptr %9, i32 0, i32 0
  %11 = load ptr, ptr %10, align 128, !tbaa !84
  store ptr %11, ptr %6, align 8, !tbaa !3
  %12 = load ptr, ptr %6, align 8, !tbaa !3
  call void @_ZN3tbb6detail2r111thread_data22detach_task_dispatcherEv(ptr noundef nonnull align 8 dereferenceable(240) %12)
  %13 = load ptr, ptr %6, align 8, !tbaa !3
  %14 = load ptr, ptr %5, align 8, !tbaa !65
  call void @_ZN3tbb6detail2r111thread_data22attach_task_dispatcherERNS1_15task_dispatcherE(ptr noundef nonnull align 8 dereferenceable(240) %13, ptr noundef nonnull align 128 dereferenceable(128) %14)
  call void @llvm.lifetime.end.p0(i64 8, ptr %6) #11
  %15 = getelementptr inbounds nuw %"class.tbb::detail::r1::task_dispatcher", ptr %9, i32 0, i32 4
  %16 = load ptr, ptr %15, align 64, !tbaa !85
  %17 = load ptr, ptr %5, align 8, !tbaa !65
  %18 = getelementptr inbounds nuw %"class.tbb::detail::r1::task_dispatcher", ptr %17, i32 0, i32 4
  %19 = load ptr, ptr %18, align 64, !tbaa !85
  call void @_ZN3tbb6detail2r118suspend_point_type6resumeEPS2_(ptr noundef nonnull align 64 dereferenceable(1216) %16, ptr noundef %19)
  %20 = getelementptr inbounds nuw %"class.tbb::detail::r1::task_dispatcher", ptr %9, i32 0, i32 0
  %21 = load ptr, ptr %20, align 128, !tbaa !84
  %22 = icmp ne ptr %21, null
  br i1 %22, label %23, label %38

23:                                               ; preds = %2
  call void @llvm.lifetime.start.p0(i64 8, ptr %7) #11
  %24 = getelementptr inbounds nuw %"class.tbb::detail::r1::task_dispatcher", ptr %9, i32 0, i32 0
  %25 = load ptr, ptr %24, align 128, !tbaa !84
  store ptr %25, ptr %7, align 8, !tbaa !3
  call void @_ZN3tbb6detail2r115task_dispatcher21do_post_resume_actionEv(ptr noundef nonnull align 128 dereferenceable(128) %9)
  call void @llvm.lifetime.start.p0(i64 8, ptr %8) #11
  %26 = load ptr, ptr %7, align 8, !tbaa !3
  %27 = getelementptr inbounds nuw %"class.tbb::detail::r1::thread_data", ptr %26, i32 0, i32 7
  %28 = load ptr, ptr %27, align 8, !tbaa !86
  store ptr %28, ptr %8, align 8, !tbaa !87
  %29 = load ptr, ptr %8, align 8, !tbaa !87
  %30 = getelementptr inbounds nuw %"class.tbb::detail::r1::arena_slot", ptr %29, i32 0, i32 3
  %31 = load ptr, ptr %30, align 8, !tbaa !88
  %32 = icmp eq ptr %9, %31
  br i1 %32, label %33, label %37

33:                                               ; preds = %23
  %34 = getelementptr inbounds nuw %"class.tbb::detail::r1::task_dispatcher", ptr %9, i32 0, i32 4
  %35 = load ptr, ptr %34, align 64, !tbaa !85
  %36 = getelementptr inbounds nuw %"struct.tbb::detail::r1::suspend_point_type", ptr %35, i32 0, i32 2
  call void @_ZNSt6atomicIbE5storeEbSt12memory_order(ptr noundef nonnull align 1 dereferenceable(1) %36, i1 noundef zeroext false, i32 noundef 0) #11
  br label %37

37:                                               ; preds = %33, %23
  store i1 true, ptr %3, align 1
  call void @llvm.lifetime.end.p0(i64 8, ptr %8) #11
  call void @llvm.lifetime.end.p0(i64 8, ptr %7) #11
  br label %39

38:                                               ; preds = %2
  store i1 false, ptr %3, align 1
  br label %39

39:                                               ; preds = %38, %37
  %40 = load i1, ptr %3, align 1
  ret i1 %40
}