; Function Attrs: mustprogress sspstrong uwtable
define noundef zeroext i1 @_ZN3tbb6detail2r115task_dispatcher6resumeERS2_(ptr noundef nonnull readonly align 128 dereferenceable(128) %0, ptr noundef nonnull align 128 dereferenceable(128) initializes((0, 8)) %1) local_unnamed_addr #2 align 2 {
  %3 = load ptr, ptr %0, align 128, !tbaa !91
  %4 = getelementptr inbounds nuw i8, ptr %3, i64 24
  %5 = load ptr, ptr %4, align 8, !tbaa !92
  store ptr null, ptr %5, align 128, !tbaa !91
  store ptr %3, ptr %1, align 128, !tbaa !91
  store ptr %1, ptr %4, align 8, !tbaa !92
  %6 = getelementptr inbounds nuw i8, ptr %0, i64 64
  %7 = load ptr, ptr %6, align 64, !tbaa !111
  %8 = getelementptr inbounds nuw i8, ptr %1, i64 64
  %9 = load ptr, ptr %8, align 64, !tbaa !111
  %10 = getelementptr inbounds nuw i8, ptr %9, i64 1016
  store ptr %7, ptr %10, align 8, !tbaa !112
  %11 = getelementptr inbounds nuw i8, ptr %7, i64 24
  %12 = getelementptr inbounds nuw i8, ptr %9, i64 24
  %13 = getelementptr inbounds nuw i8, ptr %7, i64 1008
  store i32 1, ptr %13, align 8, !tbaa !113
  %14 = getelementptr inbounds nuw i8, ptr %9, i64 1008
  store i32 2, ptr %14, align 8, !tbaa !113
  %15 = tail call i32 @swapcontext(ptr noundef nonnull align 8 dereferenceable(988) %11, ptr noundef nonnull align 8 dereferenceable(988) %12) #6
  %16 = getelementptr inbounds nuw i8, ptr %7, i64 1024
  store atomic i32 0, ptr %16 monotonic, align 4
  %17 = getelementptr inbounds nuw i8, ptr %7, i64 1016
  %18 = load ptr, ptr %17, align 8, !tbaa !112
  %.not.i.i = icmp eq ptr %18, null
  br i1 %.not.i.i, label %_ZN3tbb6detail2r118suspend_point_type6resumeEPS2_.exit, label %19

19:                                               ; preds = %2
  %20 = getelementptr inbounds nuw i8, ptr %18, i64 1024
  %21 = atomicrmw xchg ptr %20, i32 1 seq_cst, align 4
  %22 = icmp eq i32 %21, 2
  br i1 %22, label %23, label %_ZN3tbb6detail2r118suspend_point_type6resumeEPS2_.exit

23:                                               ; preds = %19
  %24 = load ptr, ptr %17, align 8, !tbaa !112
  tail call void @_ZN3tbb6detail2r16resumeEPNS1_18suspend_point_typeE(ptr noundef %24)
  br label %_ZN3tbb6detail2r118suspend_point_type6resumeEPS2_.exit

_ZN3tbb6detail2r118suspend_point_type6resumeEPS2_.exit: ; preds = %2, %19, %23
  store ptr null, ptr %17, align 8, !tbaa !112
  %25 = load ptr, ptr %0, align 128, !tbaa !91
  %.not = icmp ne ptr %25, null
  br i1 %.not, label %26, label %35

26:                                               ; preds = %_ZN3tbb6detail2r118suspend_point_type6resumeEPS2_.exit
  tail call void @_ZN3tbb6detail2r115task_dispatcher21do_post_resume_actionEv(ptr noundef nonnull align 128 dereferenceable(128) %0)
  %27 = getelementptr inbounds nuw i8, ptr %25, i64 48
  %28 = load ptr, ptr %27, align 8, !tbaa !114
  %29 = getelementptr inbounds nuw i8, ptr %28, i64 168
  %30 = load ptr, ptr %29, align 8, !tbaa !115
  %31 = icmp eq ptr %0, %30
  br i1 %31, label %32, label %35

32:                                               ; preds = %26
  %33 = load ptr, ptr %6, align 64, !tbaa !111
  %34 = getelementptr inbounds nuw i8, ptr %33, i64 16
  store atomic i8 0, ptr %34 monotonic, align 1
  br label %35

35:                                               ; preds = %_ZN3tbb6detail2r118suspend_point_type6resumeEPS2_.exit, %26, %32
  ret i1 %.not
}